target datalayout = "e-m:e-p270:32:32-p271:32:32-p272:64:64-i64:64-i128:128-f80:128-n8:16:32:64-S128"
target triple = "x86_64-pc-linux-gnu"

%"class.ncnn::ParamDict" = type { ptr, ptr }

; Function Attrs: mustprogress uwtable
define hidden void @_ZN4ncnn14resize_bicubicERKNS_3MatERS0_iiRKNS_6OptionE(ptr noundef nonnull align 8 dereferenceable(72) %0, ptr noundef nonnull align 8 dereferenceable(72) %1, i32 noundef %2, i32 noundef %3, ptr noundef nonnull align 8 dereferenceable(64) %4) #0 personality ptr @__gxx_personality_v0 {
  %6 = alloca ptr, align 8
  %7 = alloca ptr, align 8
  %8 = alloca i32, align 4
  %9 = alloca i32, align 4
  %10 = alloca ptr, align 8
  %11 = alloca ptr, align 8
  %12 = alloca %"class.ncnn::ParamDict", align 8
  %13 = alloca ptr, align 8
  %14 = alloca i32, align 4
  store ptr %0, ptr %6, align 8, !tbaa !4
  store ptr %1, ptr %7, align 8, !tbaa !4
  store i32 %2, ptr %8, align 4, !tbaa !25
  store i32 %3, ptr %9, align 4, !tbaa !25
  store ptr %4, ptr %10, align 8, !tbaa !51
  call void @llvm.lifetime.start.p0(i64 8, ptr %11) #9
  %15 = call noundef ptr @_ZN4ncnn12create_layerEi(i32 noundef 50)
  store ptr %15, ptr %11, align 8, !tbaa !39
  call void @llvm.lifetime.start.p0(i64 16, ptr %12) #9
  call void @_ZN4ncnn9ParamDictC1Ev(ptr noundef nonnull align 8 dereferenceable(16) %12)
  invoke void @_ZN4ncnn9ParamDict3setEii(ptr noundef nonnull align 8 dereferenceable(16) %12, i32 noundef 0, i32 noundef 3)
          to label %16 unwind label %57

16:                                               ; preds = %5
  %17 = load i32, ptr %9, align 4, !tbaa !25
  invoke void @_ZN4ncnn9ParamDict3setEii(ptr noundef nonnull align 8 dereferenceable(16) %12, i32 noundef 3, i32 noundef %17)
          to label %18 unwind label %57

18:                                               ; preds = %16
  %19 = load i32, ptr %8, align 4, !tbaa !25
  invoke void @_ZN4ncnn9ParamDict3setEii(ptr noundef nonnull align 8 dereferenceable(16) %12, i32 noundef 4, i32 noundef %19)
          to label %20 unwind label %57

20:                                               ; preds = %18
  %21 = load ptr, ptr %11, align 8, !tbaa !39
  %22 = load ptr, ptr %21, align 8, !tbaa !30
  %23 = getelementptr inbounds ptr, ptr %22, i64 2
  %24 = load ptr, ptr %23, align 8
  %25 = invoke noundef i32 %24(ptr noundef nonnull align 8 dereferenceable(208) %21, ptr noundef nonnull align 8 dereferenceable(16) %12)
          to label %26 unwind label %57

26:                                               ; preds = %20
  %27 = load ptr, ptr %11, align 8, !tbaa !39
  %28 = load ptr, ptr %10, align 8, !tbaa !51
  %29 = load ptr, ptr %27, align 8, !tbaa !30
  %30 = getelementptr inbounds ptr, ptr %29, i64 4
  %31 = load ptr, ptr %30, align 8
  %32 = invoke noundef i32 %31(ptr noundef nonnull align 8 dereferenceable(208) %27, ptr noundef nonnull align 8 dereferenceable(64) %28)
          to label %33 unwind label %57

33:                                               ; preds = %26
  %34 = load ptr, ptr %11, align 8, !tbaa !39
  %35 = load ptr, ptr %6, align 8, !tbaa !4
  %36 = load ptr, ptr %7, align 8, !tbaa !4
  %37 = load ptr, ptr %10, align 8, !tbaa !51
  %38 = load ptr, ptr %34, align 8, !tbaa !30
  %39 = getelementptr inbounds ptr, ptr %38, i64 7
  %40 = load ptr, ptr %39, align 8
  %41 = invoke noundef i32 %40(ptr noundef nonnull align 8 dereferenceable(208) %34, ptr noundef nonnull align 8 dereferenceable(72) %35, ptr noundef nonnull align 8 dereferenceable(72) %36, ptr noundef nonnull align 8 dereferenceable(64) %37)
          to label %42 unwind label %57

42:                                               ; preds = %33
  %43 = load ptr, ptr %11, align 8, !tbaa !39
  %44 = load ptr, ptr %10, align 8, !tbaa !51
  %45 = load ptr, ptr %43, align 8, !tbaa !30
  %46 = getelementptr inbounds ptr, ptr %45, i64 5
  %47 = load ptr, ptr %46, align 8
  %48 = invoke noundef i32 %47(ptr noundef nonnull align 8 dereferenceable(208) %43, ptr noundef nonnull align 8 dereferenceable(64) %44)
          to label %49 unwind label %57

49:                                               ; preds = %42
  %50 = load ptr, ptr %11, align 8, !tbaa !39
  %51 = icmp eq ptr %50, null
  br i1 %51, label %56, label %52

52:                                               ; preds = %49
  %53 = load ptr, ptr %50, align 8, !tbaa !30
  %54 = getelementptr inbounds ptr, ptr %53, i64 1
  %55 = load ptr, ptr %54, align 8
  call void %55(ptr noundef nonnull align 8 dereferenceable(208) %50) #9
  br label %56

56:                                               ; preds = %52, %49
  call void @_ZN4ncnn9ParamDictD1Ev(ptr noundef nonnull align 8 dereferenceable(16) %12) #9
  call void @llvm.lifetime.end.p0(i64 16, ptr %12) #9
  call void @llvm.lifetime.end.p0(i64 8, ptr %11) #9
  ret void

57:                                               ; preds = %42, %33, %26, %20, %18, %16, %5
  %58 = landingpad { ptr, i32 }
          cleanup
  %59 = extractvalue { ptr, i32 } %58, 0
  store ptr %59, ptr %13, align 8
  %60 = extractvalue { ptr, i32 } %58, 1
  store i32 %60, ptr %14, align 4
  call void @_ZN4ncnn9ParamDictD1Ev(ptr noundef nonnull align 8 dereferenceable(16) %12) #9
  call void @llvm.lifetime.end.p0(i64 16, ptr %12) #9
  call void @llvm.lifetime.end.p0(i64 8, ptr %11) #9
  br label %61

61:                                               ; preds = %57
  %62 = load ptr, ptr %13, align 8
  %63 = load i32, ptr %14, align 4
  %64 = insertvalue { ptr, i32 } poison, ptr %62, 0
  %65 = insertvalue { ptr, i32 } %64, i32 %63, 1
  resume { ptr, i32 } %65
}