; Function Attrs: mustprogress uwtable
define hidden void @_ZN4ncnn14resize_bicubicERKNS_3MatERS0_iiRKNS_6OptionE(ptr noundef nonnull align 8 dereferenceable(72) %0, ptr noundef nonnull align 8 dereferenceable(72) %1, i32 noundef %2, i32 noundef %3, ptr noundef nonnull align 8 dereferenceable(64) %4) local_unnamed_addr #0 personality ptr @__gxx_personality_v0 {
  %6 = alloca %"class.ncnn::ParamDict", align 8
  %7 = tail call noundef ptr @_ZN4ncnn12create_layerEi(i32 noundef 50)
  call void @llvm.lifetime.start.p0(i64 16, ptr nonnull %6) #12
  call void @_ZN4ncnn9ParamDictC1Ev(ptr noundef nonnull align 8 dereferenceable(16) %6)
  invoke void @_ZN4ncnn9ParamDict3setEii(ptr noundef nonnull align 8 dereferenceable(16) %6, i32 noundef 0, i32 noundef 3)
          to label %8 unwind label %34

8:                                                ; preds = %5
  invoke void @_ZN4ncnn9ParamDict3setEii(ptr noundef nonnull align 8 dereferenceable(16) %6, i32 noundef 3, i32 noundef %3)
          to label %9 unwind label %34

9:                                                ; preds = %8
  invoke void @_ZN4ncnn9ParamDict3setEii(ptr noundef nonnull align 8 dereferenceable(16) %6, i32 noundef 4, i32 noundef %2)
          to label %10 unwind label %34

10:                                               ; preds = %9
  %11 = load ptr, ptr %7, align 8, !tbaa !31
  %12 = getelementptr inbounds nuw i8, ptr %11, i64 16
  %13 = load ptr, ptr %12, align 8
  %14 = invoke noundef i32 %13(ptr noundef nonnull align 8 dereferenceable(208) %7, ptr noundef nonnull align 8 dereferenceable(16) %6)
          to label %15 unwind label %34

15:                                               ; preds = %10
  %16 = load ptr, ptr %7, align 8, !tbaa !31
  %17 = getelementptr inbounds nuw i8, ptr %16, i64 32
  %18 = load ptr, ptr %17, align 8
  %19 = invoke noundef i32 %18(ptr noundef nonnull align 8 dereferenceable(208) %7, ptr noundef nonnull align 8 dereferenceable(64) %4)
          to label %20 unwind label %34

20:                                               ; preds = %15
  %21 = load ptr, ptr %7, align 8, !tbaa !31
  %22 = getelementptr inbounds nuw i8, ptr %21, i64 56
  %23 = load ptr, ptr %22, align 8
  %24 = invoke noundef i32 %23(ptr noundef nonnull align 8 dereferenceable(208) %7, ptr noundef nonnull align 8 dereferenceable(72) %0, ptr noundef nonnull align 8 dereferenceable(72) %1, ptr noundef nonnull align 8 dereferenceable(64) %4)
          to label %25 unwind label %34

25:                                               ; preds = %20
  %26 = load ptr, ptr %7, align 8, !tbaa !31
  %27 = getelementptr inbounds nuw i8, ptr %26, i64 40
  %28 = load ptr, ptr %27, align 8
  %29 = invoke noundef i32 %28(ptr noundef nonnull align 8 dereferenceable(208) %7, ptr noundef nonnull align 8 dereferenceable(64) %4)
          to label %30 unwind label %34

30:                                               ; preds = %25
  %31 = load ptr, ptr %7, align 8, !tbaa !31
  %32 = getelementptr inbounds nuw i8, ptr %31, i64 8
  %33 = load ptr, ptr %32, align 8
  call void %33(ptr noundef nonnull align 8 dereferenceable(208) %7) #12
  call void @_ZN4ncnn9ParamDictD1Ev(ptr noundef nonnull align 8 dereferenceable(16) %6) #12
  call void @llvm.lifetime.end.p0(i64 16, ptr nonnull %6) #12
  ret void

34:                                               ; preds = %25, %20, %15, %10, %9, %8, %5
  %35 = landingpad { ptr, i32 }
          cleanup
  call void @_ZN4ncnn9ParamDictD1Ev(ptr noundef nonnull align 8 dereferenceable(16) %6) #12
  call void @llvm.lifetime.end.p0(i64 16, ptr nonnull %6) #12
  resume { ptr, i32 } %35
}